; Function Attrs: mustprogress uwtable
define void @_ZN17double_conversion23DoubleToStringConverter13DoubleToAsciiEdNS0_8DtoaModeEiPciPbPiS4_(double noundef %0, i32 noundef %1, i32 noundef %2, ptr noundef %3, i32 noundef %4, ptr noundef writeonly captures(none) initializes((0, 1)) %5, ptr noundef %6, ptr noundef %7) local_unnamed_addr #5 align 2 {
  %9 = bitcast double %0 to i64
  %.lobit = lshr i64 %9, 63
  %.sink = trunc nuw nsw i64 %.lobit to i8
  %.0 = tail call double @llvm.fabs.f64(double %0)
  store i8 %.sink, ptr %5, align 1, !tbaa !29
  %10 = icmp eq i32 %1, 3
  %11 = icmp eq i32 %2, 0
  %or.cond = and i1 %10, %11
  br i1 %or.cond, label %12, label %13

12:                                               ; preds = %8
  store i8 0, ptr %3, align 1, !tbaa !23
  store i32 0, ptr %6, align 4, !tbaa !26
  br label %30

13:                                               ; preds = %8
  %14 = fcmp oeq double %0, 0.000000e+00
  br i1 %14, label %15, label %17

15:                                               ; preds = %13
  store i8 48, ptr %3, align 1, !tbaa !23
  %16 = getelementptr inbounds nuw i8, ptr %3, i64 1
  store i8 0, ptr %16, align 1, !tbaa !23
  store i32 1, ptr %6, align 4, !tbaa !26
  store i32 1, ptr %7, align 4, !tbaa !26
  br label %30

17:                                               ; preds = %13
  switch i32 %1, label %24 [
    i32 0, label %25
    i32 1, label %18
    i32 2, label %20
    i32 3, label %22
  ]

18:                                               ; preds = %17
  %19 = tail call noundef zeroext i1 @_ZN17double_conversion8FastDtoaEdNS_12FastDtoaModeEiNS_6VectorIcEEPiS3_(double noundef %.0, i32 noundef 1, i32 noundef 0, ptr %3, i32 %4, ptr noundef %6, ptr noundef %7)
  br i1 %19, label %30, label %_ZN17double_conversionL20DtoaToBignumDtoaModeENS_23DoubleToStringConverter8DtoaModeE.exit

20:                                               ; preds = %17
  %21 = tail call noundef zeroext i1 @_ZN17double_conversion13FastFixedDtoaEdiNS_6VectorIcEEPiS2_(double noundef %.0, i32 noundef %2, ptr %3, i32 %4, ptr noundef %6, ptr noundef %7)
  br i1 %21, label %30, label %_ZN17double_conversionL20DtoaToBignumDtoaModeENS_23DoubleToStringConverter8DtoaModeE.exit

22:                                               ; preds = %17
  %23 = tail call noundef zeroext i1 @_ZN17double_conversion8FastDtoaEdNS_12FastDtoaModeEiNS_6VectorIcEEPiS3_(double noundef %.0, i32 noundef 2, i32 noundef %2, ptr %3, i32 %4, ptr noundef %6, ptr noundef %7)
  br i1 %23, label %30, label %_ZN17double_conversionL20DtoaToBignumDtoaModeENS_23DoubleToStringConverter8DtoaModeE.exit

24:                                               ; preds = %17
  tail call void @abort() #15
  unreachable

25:                                               ; preds = %17
  %26 = tail call noundef zeroext i1 @_ZN17double_conversion8FastDtoaEdNS_12FastDtoaModeEiNS_6VectorIcEEPiS3_(double noundef %.0, i32 noundef 0, i32 noundef 0, ptr %3, i32 %4, ptr noundef %6, ptr noundef %7)
  br i1 %26, label %30, label %_ZN17double_conversionL20DtoaToBignumDtoaModeENS_23DoubleToStringConverter8DtoaModeE.exit

_ZN17double_conversionL20DtoaToBignumDtoaModeENS_23DoubleToStringConverter8DtoaModeE.exit: ; preds = %25, %22, %20, %18
  tail call void @_ZN17double_conversion10BignumDtoaEdNS_14BignumDtoaModeEiNS_6VectorIcEEPiS3_(double noundef %.0, i32 noundef %1, i32 noundef %2, ptr %3, i32 %4, ptr noundef %6, ptr noundef %7)
  %27 = load i32, ptr %6, align 4, !tbaa !26
  %28 = sext i32 %27 to i64
  %29 = getelementptr inbounds i8, ptr %3, i64 %28
  store i8 0, ptr %29, align 1, !tbaa !23
  br label %30

30:                                               ; preds = %18, %20, %22, %_ZN17double_conversionL20DtoaToBignumDtoaModeENS_23DoubleToStringConverter8DtoaModeE.exit, %25, %15, %12
  ret void
}